; Function Attrs: mustprogress nofree nounwind willreturn memory(write, argmem: readwrite) uwtable
define internal void @_ZL7forwardR8PJ_COORDP8PJconsts(ptr noundef nonnull align 8 captures(none) dereferenceable(32) %0, ptr noundef readonly captures(none) %1) #0 {
  %.sroa.5 = alloca [2 x double], align 8
  call void @llvm.lifetime.start.p0(i64 16, ptr nonnull %.sroa.5)
  %.sroa.0.sroa.0.0.copyload = load double, ptr %0, align 8
  %.sroa.0.sroa.2.0..sroa_idx = getelementptr inbounds nuw i8, ptr %0, i64 8
  %.sroa.0.sroa.2.0.copyload = load double, ptr %.sroa.0.sroa.2.0..sroa_idx, align 8
  %.sroa.0.sroa.3.0..sroa_idx = getelementptr inbounds nuw i8, ptr %0, i64 16
  call void @llvm.memcpy.p0.p0.i64(ptr noundef nonnull align 8 dereferenceable(16) %.sroa.5, ptr noundef nonnull align 8 dereferenceable(16) %.sroa.0.sroa.3.0..sroa_idx, i64 16, i1 false)
  %3 = tail call double @llvm.fabs.f64(double %.sroa.0.sroa.2.0.copyload)
  %or.cond.i = fcmp ogt double %3, 0x3FF921FB53FF74E8
  br i1 %or.cond.i, label %_Z22pj_geocentric_latitudePK8PJconsts12PJ_DIRECTION8PJ_COORD.exit, label %4

4:                                                ; preds = %2
  %5 = getelementptr inbounds nuw i8, ptr %1, i64 216
  %6 = load double, ptr %5, align 8, !tbaa !7, !noalias !52
  %7 = fcmp oeq double %6, 0.000000e+00
  br i1 %7, label %_Z22pj_geocentric_latitudePK8PJconsts12PJ_DIRECTION8PJ_COORD.exit, label %.sink.split.i

.sink.split.i:                                    ; preds = %4
  %8 = getelementptr inbounds nuw i8, ptr %1, i64 256
  %9 = load double, ptr %8, align 8, !tbaa !38, !noalias !52
  %10 = tail call double @tan(double noundef %.sroa.0.sroa.2.0.copyload) #7, !tbaa !39, !noalias !52
  %11 = fmul double %9, %10
  %12 = tail call double @atan(double noundef %11) #7, !tbaa !39, !noalias !52
  br label %_Z22pj_geocentric_latitudePK8PJconsts12PJ_DIRECTION8PJ_COORD.exit

_Z22pj_geocentric_latitudePK8PJconsts12PJ_DIRECTION8PJ_COORD.exit: ; preds = %2, %4, %.sink.split.i
  %.sroa.4.0 = phi double [ %.sroa.0.sroa.2.0.copyload, %2 ], [ %.sroa.0.sroa.2.0.copyload, %4 ], [ %12, %.sink.split.i ]
  store double %.sroa.0.sroa.0.0.copyload, ptr %0, align 8
  store double %.sroa.4.0, ptr %.sroa.0.sroa.2.0..sroa_idx, align 8
  call void @llvm.memcpy.p0.p0.i64(ptr noundef nonnull align 8 dereferenceable(16) %.sroa.0.sroa.3.0..sroa_idx, ptr noundef nonnull align 8 dereferenceable(16) %.sroa.5, i64 16, i1 false), !tbaa.struct !51
  call void @llvm.lifetime.end.p0(i64 16, ptr nonnull %.sroa.5)
  ret void
}